; ModuleID = '54/172.c'
source_filename = "54/172.c"
target datalayout = "e-m:e-p270:32:32-p271:32:32-p272:64:64-i64:64-f80:128-n8:16:32:64-S128"
target triple = "x86_64-pc-linux-gnu"

@.str = private unnamed_addr constant [6 x i8] c"%d %d\00", align 1
@.str.1 = private unnamed_addr constant [4 x i8] c"%d\0A\00", align 1

; Function Attrs: noinline nounwind uwtable
define dso_local void @main() #0 {
  %1 = alloca i32, align 4
  %2 = alloca i32, align 4
  %3 = alloca i32, align 4
  %4 = alloca i32, align 4
  %5 = alloca i32, align 4
  store i32 1, i32* %4, align 4
  %6 = call i32 (i8*, ...) @__isoc99_scanf(i8* getelementptr inbounds ([6 x i8], [6 x i8]* @.str, i64 0, i64 0), i32* %2, i32* %3)
  store i32 1, i32* %1, align 4
  br label %7

7:                                                ; preds = %16, %0
  %8 = load i32, i32* %1, align 4
  %9 = load i32, i32* %2, align 4
  %10 = icmp sle i32 %8, %9
  br i1 %10, label %11, label %19

11:                                               ; preds = %7
  %12 = load i32, i32* %4, align 4
  %13 = load i32, i32* %2, align 4
  %14 = sub nsw i32 %13, 1
  %15 = mul nsw i32 %12, %14
  store i32 %15, i32* %4, align 4
  br label %16

16:                                               ; preds = %11
  %17 = load i32, i32* %1, align 4
  %18 = add nsw i32 %17, 1
  store i32 %18, i32* %1, align 4
  br label %7

19:                                               ; preds = %7
  store i32 1, i32* %1, align 4
  br label %20

20:                                               ; preds = %33, %19
  %21 = load i32, i32* %4, align 4
  %22 = load i32, i32* %1, align 4
  %23 = mul nsw i32 %21, %22
  %24 = load i32, i32* %3, align 4
  %25 = load i32, i32* %2, align 4
  %26 = sub nsw i32 %25, 1
  %27 = mul nsw i32 %24, %26
  %28 = sub nsw i32 %23, %27
  store i32 %28, i32* %5, align 4
  %29 = load i32, i32* %5, align 4
  %30 = icmp sgt i32 %29, 0
  br i1 %30, label %31, label %32

31:                                               ; preds = %20
  br label %36

32:                                               ; preds = %20
  br label %33

33:                                               ; preds = %32
  %34 = load i32, i32* %1, align 4
  %35 = add nsw i32 %34, 1
  store i32 %35, i32* %1, align 4
  br label %20

36:                                               ; preds = %31
  store i32 1, i32* %1, align 4
  br label %37

37:                                               ; preds = %50, %36
  %38 = load i32, i32* %1, align 4
  %39 = load i32, i32* %2, align 4
  %40 = icmp sle i32 %38, %39
  br i1 %40, label %41, label %53

41:                                               ; preds = %37
  %42 = load i32, i32* %5, align 4
  %43 = load i32, i32* %2, align 4
  %44 = sub nsw i32 %43, 1
  %45 = sdiv i32 %42, %44
  %46 = load i32, i32* %2, align 4
  %47 = mul nsw i32 %45, %46
  %48 = load i32, i32* %3, align 4
  %49 = add nsw i32 %47, %48
  store i32 %49, i32* %5, align 4
  br label %50

50:                                               ; preds = %41
  %51 = load i32, i32* %1, align 4
  %52 = add nsw i32 %51, 1
  store i32 %52, i32* %1, align 4
  br label %37

53:                                               ; preds = %37
  %54 = load i32, i32* %5, align 4
  %55 = call i32 (i8*, ...) @printf(i8* getelementptr inbounds ([4 x i8], [4 x i8]* @.str.1, i64 0, i64 0), i32 %54)
  ret void
}

declare dso_local i32 @__isoc99_scanf(i8*, ...) #1

declare dso_local i32 @printf(i8*, ...) #1


!llvm.module.flags = !{!0}
!llvm.ident = !{!1}

!0 = !{i32 1, !"wchar_size", i32 4}
!1 = !{!"clang version 10.0.0-4ubuntu1 "}
